; Function Attrs: mustprogress uwtable
define hidden void @_ZN11ast_pp_util7collectERK10ref_vectorI4expr11ast_managerE(ptr noundef nonnull align 8 dereferenceable(1232) %this, ptr nocapture noundef nonnull readonly align 8 dereferenceable(16) %es) local_unnamed_addr #3 align 2 {
entry:
  %m_nodes.i = getelementptr inbounds i8, ptr %es, i64 8
  %0 = load ptr, ptr %m_nodes.i, align 8
  %cmp.i.i = icmp eq ptr %0, null
  br i1 %cmp.i.i, label %_ZN11ast_pp_util7collectEjPKP4expr.exit, label %_ZNK15ref_vector_coreI4expr19ref_manager_wrapperIS0_11ast_managerEE4sizeEv.exit

_ZNK15ref_vector_coreI4expr19ref_manager_wrapperIS0_11ast_managerEE4sizeEv.exit: ; preds = %entry
  %arrayidx.i.i = getelementptr inbounds i8, ptr %0, i64 -4
  %1 = load i32, ptr %arrayidx.i.i, align 4
  %cmp3.not.i = icmp eq i32 %1, 0
  br i1 %cmp3.not.i, label %_ZN11ast_pp_util7collectEjPKP4expr.exit, label %for.body.lr.ph.i

for.body.lr.ph.i:                                 ; preds = %_ZNK15ref_vector_coreI4expr19ref_manager_wrapperIS0_11ast_managerEE4sizeEv.exit
  %coll.i = getelementptr inbounds i8, ptr %this, i64 768
  %wide.trip.count.i = zext i32 %1 to i64
  br label %for.body.i

for.body.i:                                       ; preds = %for.body.i, %for.body.lr.ph.i
  %indvars.iv.i = phi i64 [ 0, %for.body.lr.ph.i ], [ %indvars.iv.next.i, %for.body.i ]
  %arrayidx.i = getelementptr inbounds ptr, ptr %0, i64 %indvars.iv.i
  %2 = load ptr, ptr %arrayidx.i, align 8
  tail call void @_ZN14decl_collector5visitEP3ast(ptr noundef nonnull align 8 dereferenceable(464) %coll.i, ptr noundef %2)
  %indvars.iv.next.i = add nuw nsw i64 %indvars.iv.i, 1
  %exitcond.not.i = icmp eq i64 %indvars.iv.next.i, %wide.trip.count.i
  br i1 %exitcond.not.i, label %_ZN11ast_pp_util7collectEjPKP4expr.exit, label %for.body.i, !llvm.loop !4

_ZN11ast_pp_util7collectEjPKP4expr.exit:          ; preds = %for.body.i, %entry, %_ZNK15ref_vector_coreI4expr19ref_manager_wrapperIS0_11ast_managerEE4sizeEv.exit
  ret void
}